target datalayout = "e-m:e-p270:32:32-p271:32:32-p272:64:64-i64:64-i128:128-f80:128-n8:16:32:64-S128"
target triple = "x86_64-unknown-linux-gnu"

%struct.AudiodevJackOptions = type { ptr, ptr }

@.str.7 = private unnamed_addr constant [20 x i8] c"visit_is_dealloc(v)\00", align 1
@.str.8 = private unnamed_addr constant [24 x i8] c"qapi/qapi-visit-audio.c\00", align 1
@.str.9 = private unnamed_addr constant [3 x i8] c"in\00", align 1
@.str.10 = private unnamed_addr constant [4 x i8] c"out\00", align 1
@__PRETTY_FUNCTION__.visit_type_AudiodevJackOptions = private unnamed_addr constant [96 x i8] c"_Bool visit_type_AudiodevJackOptions(Visitor *, const char *, AudiodevJackOptions **, Error **)\00", align 1

; Function Attrs: nounwind sspstrong uwtable
define dso_local zeroext i1 @visit_type_AudiodevJackOptions_members(ptr noundef %v, ptr noundef %obj, ptr noundef %errp) #0 {
entry:
  %retval = alloca i1, align 1
  %v.addr = alloca ptr, align 8
  %obj.addr = alloca ptr, align 8
  %errp.addr = alloca ptr, align 8
  %has_in = alloca i8, align 1
  %has_out = alloca i8, align 1
  store ptr %v, ptr %v.addr, align 8
  store ptr %obj, ptr %obj.addr, align 8
  store ptr %errp, ptr %errp.addr, align 8
  %0 = load ptr, ptr %obj.addr, align 8
  %in = getelementptr inbounds %struct.AudiodevJackOptions, ptr %0, i32 0, i32 0
  %1 = load ptr, ptr %in, align 8
  %tobool = icmp ne ptr %1, null
  %lnot = xor i1 %tobool, true
  %lnot1 = xor i1 %lnot, true
  %frombool = zext i1 %lnot1 to i8
  store i8 %frombool, ptr %has_in, align 1
  %2 = load ptr, ptr %obj.addr, align 8
  %out = getelementptr inbounds %struct.AudiodevJackOptions, ptr %2, i32 0, i32 1
  %3 = load ptr, ptr %out, align 8
  %tobool2 = icmp ne ptr %3, null
  %lnot3 = xor i1 %tobool2, true
  %lnot4 = xor i1 %lnot3, true
  %frombool5 = zext i1 %lnot4 to i8
  store i8 %frombool5, ptr %has_out, align 1
  %4 = load ptr, ptr %v.addr, align 8
  %call = call zeroext i1 @visit_optional(ptr noundef %4, ptr noundef @.str.9, ptr noundef %has_in)
  br i1 %call, label %if.then, label %if.end9

if.then:                                          ; preds = %entry
  %5 = load ptr, ptr %v.addr, align 8
  %6 = load ptr, ptr %obj.addr, align 8
  %in6 = getelementptr inbounds %struct.AudiodevJackOptions, ptr %6, i32 0, i32 0
  %7 = load ptr, ptr %errp.addr, align 8
  %call7 = call zeroext i1 @visit_type_AudiodevJackPerDirectionOptions(ptr noundef %5, ptr noundef @.str.9, ptr noundef %in6, ptr noundef %7)
  br i1 %call7, label %if.end, label %if.then8

if.then8:                                         ; preds = %if.then
  store i1 false, ptr %retval, align 1
  br label %return

if.end:                                           ; preds = %if.then
  br label %if.end9

if.end9:                                          ; preds = %if.end, %entry
  %8 = load ptr, ptr %v.addr, align 8
  %call10 = call zeroext i1 @visit_optional(ptr noundef %8, ptr noundef @.str.10, ptr noundef %has_out)
  br i1 %call10, label %if.then11, label %if.end16

if.then11:                                        ; preds = %if.end9
  %9 = load ptr, ptr %v.addr, align 8
  %10 = load ptr, ptr %obj.addr, align 8
  %out12 = getelementptr inbounds %struct.AudiodevJackOptions, ptr %10, i32 0, i32 1
  %11 = load ptr, ptr %errp.addr, align 8
  %call13 = call zeroext i1 @visit_type_AudiodevJackPerDirectionOptions(ptr noundef %9, ptr noundef @.str.10, ptr noundef %out12, ptr noundef %11)
  br i1 %call13, label %if.end15, label %if.then14

if.then14:                                        ; preds = %if.then11
  store i1 false, ptr %retval, align 1
  br label %return

if.end15:                                         ; preds = %if.then11
  br label %if.end16

if.end16:                                         ; preds = %if.end15, %if.end9
  store i1 true, ptr %retval, align 1
  br label %return

return:                                           ; preds = %if.end16, %if.then14, %if.then8
  %12 = load i1, ptr %retval, align 1
  ret i1 %12
}

; Function Attrs: nounwind sspstrong uwtable
define dso_local zeroext i1 @visit_type_AudiodevJackOptions(ptr noundef %v, ptr noundef %name, ptr noundef %obj, ptr noundef %errp) #0 {
entry:
  %retval = alloca i1, align 1
  %v.addr = alloca ptr, align 8
  %name.addr = alloca ptr, align 8
  %obj.addr = alloca ptr, align 8
  %errp.addr = alloca ptr, align 8
  %ok = alloca i8, align 1
  store ptr %v, ptr %v.addr, align 8
  store ptr %name, ptr %name.addr, align 8
  store ptr %obj, ptr %obj.addr, align 8
  store ptr %errp, ptr %errp.addr, align 8
  store i8 0, ptr %ok, align 1
  %0 = load ptr, ptr %v.addr, align 8
  %1 = load ptr, ptr %name.addr, align 8
  %2 = load ptr, ptr %obj.addr, align 8
  %3 = load ptr, ptr %errp.addr, align 8
  %call = call zeroext i1 @visit_start_struct(ptr noundef %0, ptr noundef %1, ptr noundef %2, i64 noundef 16, ptr noundef %3)
  br i1 %call, label %if.end, label %if.then

if.then:                                          ; preds = %entry
  store i1 false, ptr %retval, align 1
  br label %return

if.end:                                           ; preds = %entry
  %4 = load ptr, ptr %obj.addr, align 8
  %5 = load ptr, ptr %4, align 8
  %tobool = icmp ne ptr %5, null
  br i1 %tobool, label %if.end5, label %if.then1

if.then1:                                         ; preds = %if.end
  %6 = load ptr, ptr %v.addr, align 8
  %call2 = call zeroext i1 @visit_is_dealloc(ptr noundef %6)
  br i1 %call2, label %if.then3, label %if.else

if.then3:                                         ; preds = %if.then1
  br label %if.end4

if.else:                                          ; preds = %if.then1
  call void @__assert_fail(ptr noundef @.str.7, ptr noundef @.str.8, i32 noundef 515, ptr noundef @__PRETTY_FUNCTION__.visit_type_AudiodevJackOptions) #3
  unreachable

if.end4:                                          ; preds = %if.then3
  store i8 1, ptr %ok, align 1
  br label %out_obj

if.end5:                                          ; preds = %if.end
  %7 = load ptr, ptr %v.addr, align 8
  %8 = load ptr, ptr %obj.addr, align 8
  %9 = load ptr, ptr %8, align 8
  %10 = load ptr, ptr %errp.addr, align 8
  %call6 = call zeroext i1 @visit_type_AudiodevJackOptions_members(ptr noundef %7, ptr noundef %9, ptr noundef %10)
  br i1 %call6, label %if.end8, label %if.then7

if.then7:                                         ; preds = %if.end5
  br label %out_obj

if.end8:                                          ; preds = %if.end5
  %11 = load ptr, ptr %v.addr, align 8
  %12 = load ptr, ptr %errp.addr, align 8
  %call9 = call zeroext i1 @visit_check_struct(ptr noundef %11, ptr noundef %12)
  %frombool = zext i1 %call9 to i8
  store i8 %frombool, ptr %ok, align 1
  br label %out_obj

out_obj:                                          ; preds = %if.end8, %if.then7, %if.end4
  %13 = load ptr, ptr %v.addr, align 8
  %14 = load ptr, ptr %obj.addr, align 8
  call void @visit_end_struct(ptr noundef %13, ptr noundef %14)
  %15 = load i8, ptr %ok, align 1
  %tobool10 = trunc i8 %15 to i1
  br i1 %tobool10, label %if.end13, label %land.lhs.true

land.lhs.true:                                    ; preds = %out_obj
  %16 = load ptr, ptr %v.addr, align 8
  %call11 = call zeroext i1 @visit_is_input(ptr noundef %16)
  br i1 %call11, label %if.then12, label %if.end13

if.then12:                                        ; preds = %land.lhs.true
  %17 = load ptr, ptr %obj.addr, align 8
  %18 = load ptr, ptr %17, align 8
  call void @qapi_free_AudiodevJackOptions(ptr noundef %18)
  %19 = load ptr, ptr %obj.addr, align 8
  store ptr null, ptr %19, align 8
  br label %if.end13

if.end13:                                         ; preds = %if.then12, %land.lhs.true, %out_obj
  %20 = load i8, ptr %ok, align 1
  %tobool14 = trunc i8 %20 to i1
  store i1 %tobool14, ptr %retval, align 1
  br label %return

return:                                           ; preds = %if.end13, %if.then
  %21 = load i1, ptr %retval, align 1
  ret i1 %21
}